; Function Attrs: mustprogress uwtable
define dso_local { i64, i8 } @_ZN4Luau8getLevelEPKNS_11TypePackVarE(ptr noundef %0) local_unnamed_addr #2 personality ptr @__gxx_personality_v0 {
  %2 = tail call noundef ptr @_ZN4Luau6followEPKNS_11TypePackVarE(ptr noundef %0)
  %.not.i.i = icmp eq ptr %2, null
  br i1 %.not.i.i, label %8, label %3

3:                                                ; preds = %1
  %4 = load i32, ptr %2, align 8, !tbaa !358
  %5 = icmp eq i32 %4, 2
  br i1 %5, label %_ZN4Luau3getINS_12FreeTypePackEEEPKT_PKNS_11TypePackVarE.exit, label %8

_ZN4Luau3getINS_12FreeTypePackEEEPKT_PKNS_11TypePackVarE.exit: ; preds = %3
  %6 = getelementptr inbounds nuw i8, ptr %2, i64 12
  %7 = load i64, ptr %6, align 4
  br label %8

8:                                                ; preds = %1, %3, %_ZN4Luau3getINS_12FreeTypePackEEEPKT_PKNS_11TypePackVarE.exit
  %.sroa.2.0 = phi i8 [ 1, %_ZN4Luau3getINS_12FreeTypePackEEEPKT_PKNS_11TypePackVarE.exit ], [ 0, %3 ], [ 0, %1 ]
  %.sroa.0.0 = phi i64 [ %7, %_ZN4Luau3getINS_12FreeTypePackEEEPKT_PKNS_11TypePackVarE.exit ], [ undef, %3 ], [ undef, %1 ]
  %.fca.0.insert = insertvalue { i64, i8 } poison, i64 %.sroa.0.0, 0
  %.fca.1.insert = insertvalue { i64, i8 } %.fca.0.insert, i8 %.sroa.2.0, 1
  ret { i64, i8 } %.fca.1.insert
}